; Function Attrs: mustprogress uwtable
define void @_ZN5faiss20IndexBinaryFromFloat3addElPKh(ptr nocapture noundef nonnull align 8 dereferenceable(41) %0, i64 noundef %1, ptr noundef %2) unnamed_addr #1 align 2 personality ptr @__gxx_personality_v0 {
  %4 = getelementptr inbounds i8, ptr %0, i64 8
  %5 = load i32, ptr %4, align 8
  %6 = sext i32 %5 to i64
  %7 = and i64 %6, 422212465065984
  %.not = icmp eq i64 %7, 0
  %8 = shl nsw i64 %6, 17
  %9 = select i1 %.not, i64 %8, i64 -1
  %10 = tail call noalias noundef nonnull ptr @_Znam(i64 noundef %9) #11
  %11 = icmp sgt i64 %1, 0
  br i1 %11, label %.lr.ph, label %_ZNSt10unique_ptrIA_fSt14default_deleteIS0_EED2Ev.exit14

.lr.ph:                                           ; preds = %3
  %12 = getelementptr inbounds i8, ptr %0, i64 12
  %13 = getelementptr inbounds i8, ptr %0, i64 32
  br label %14

14:                                               ; preds = %.lr.ph, %28
  %.021 = phi i64 [ 0, %.lr.ph ], [ %29, %28 ]
  %15 = sub nsw i64 %1, %.021
  %.sroa.speculated = tail call i64 @llvm.smin.i64(i64 %15, i64 32768)
  %16 = load i32, ptr %4, align 8
  %17 = sext i32 %16 to i64
  %18 = mul nsw i64 %.sroa.speculated, %17
  %19 = load i32, ptr %12, align 4
  %20 = sext i32 %19 to i64
  %21 = mul nsw i64 %.021, %20
  %22 = getelementptr inbounds i8, ptr %2, i64 %21
  invoke void @_ZN5faiss14binary_to_realEmPKhPf(i64 noundef %18, ptr noundef %22, ptr noundef nonnull %10)
          to label %23 unwind label %_ZNSt10unique_ptrIA_fSt14default_deleteIS0_EED2Ev.exit

23:                                               ; preds = %14
  %24 = load ptr, ptr %13, align 8
  %25 = load ptr, ptr %24, align 8
  %26 = getelementptr inbounds i8, ptr %25, i64 24
  %27 = load ptr, ptr %26, align 8
  invoke void %27(ptr noundef nonnull align 8 dereferenceable(36) %24, i64 noundef %.sroa.speculated, ptr noundef nonnull %10)
          to label %28 unwind label %_ZNSt10unique_ptrIA_fSt14default_deleteIS0_EED2Ev.exit

28:                                               ; preds = %23
  %29 = add nuw nsw i64 %.021, 32768
  %30 = icmp slt i64 %29, %1
  br i1 %30, label %14, label %_ZNSt10unique_ptrIA_fSt14default_deleteIS0_EED2Ev.exit14, !llvm.loop !5

_ZNSt10unique_ptrIA_fSt14default_deleteIS0_EED2Ev.exit: ; preds = %23, %14
  %31 = landingpad { ptr, i32 }
          cleanup
  tail call void @_ZdaPv(ptr noundef nonnull %10) #10
  resume { ptr, i32 } %31

_ZNSt10unique_ptrIA_fSt14default_deleteIS0_EED2Ev.exit14: ; preds = %28, %3
  %32 = getelementptr inbounds i8, ptr %0, i64 32
  %33 = load ptr, ptr %32, align 8
  %34 = getelementptr inbounds i8, ptr %33, i64 16
  %35 = load i64, ptr %34, align 8
  %36 = getelementptr inbounds i8, ptr %0, i64 16
  store i64 %35, ptr %36, align 8
  tail call void @_ZdaPv(ptr noundef nonnull %10) #10
  ret void
}